; ModuleID = '19/1941.c'
source_filename = "19/1941.c"
target datalayout = "e-m:e-p270:32:32-p271:32:32-p272:64:64-i64:64-f80:128-n8:16:32:64-S128"
target triple = "x86_64-pc-linux-gnu"

@.str = private unnamed_addr constant [3 x i8] c"%s\00", align 1

; Function Attrs: noinline nounwind uwtable
define dso_local i32 @main() #0 {
  %1 = alloca i32, align 4
  %2 = alloca [100 x i8], align 16
  %3 = alloca [1000 x i8], align 16
  %4 = alloca [100 x i8], align 16
  %5 = alloca [1000 x i8], align 16
  %6 = alloca i8*, align 8
  %7 = alloca i32, align 4
  %8 = alloca i32, align 4
  %9 = alloca i32, align 4
  %10 = alloca i32, align 4
  %11 = alloca i32, align 4
  %12 = alloca i32, align 4
  %13 = alloca i32, align 4
  %14 = alloca i32, align 4
  store i32 0, i32* %1, align 4
  %15 = getelementptr inbounds [1000 x i8], [1000 x i8]* %3, i64 0, i64 0
  %16 = call i32 (i8*, ...) bitcast (i32 (...)* @gets to i32 (i8*, ...)*)(i8* %15)
  %17 = getelementptr inbounds [100 x i8], [100 x i8]* %2, i64 0, i64 0
  %18 = call i32 (i8*, ...) bitcast (i32 (...)* @gets to i32 (i8*, ...)*)(i8* %17)
  %19 = getelementptr inbounds [100 x i8], [100 x i8]* %4, i64 0, i64 0
  %20 = call i32 (i8*, ...) bitcast (i32 (...)* @gets to i32 (i8*, ...)*)(i8* %19)
  %21 = getelementptr inbounds [100 x i8], [100 x i8]* %2, i64 0, i64 0
  %22 = call i64 @strlen(i8* %21) #4
  %23 = trunc i64 %22 to i32
  store i32 %23, i32* %7, align 4
  %24 = getelementptr inbounds [1000 x i8], [1000 x i8]* %3, i64 0, i64 0
  %25 = call i64 @strlen(i8* %24) #4
  %26 = trunc i64 %25 to i32
  store i32 %26, i32* %8, align 4
  store i32 0, i32* %9, align 4
  %27 = load i32, i32* %8, align 4
  %28 = load i32, i32* %7, align 4
  %29 = sub nsw i32 %27, %28
  store i32 %29, i32* %10, align 4
  store i32 0, i32* %14, align 4
  %30 = getelementptr inbounds [1000 x i8], [1000 x i8]* %3, i64 0, i64 -1
  store i8 32, i8* %30, align 1
  store i32 0, i32* %11, align 4
  br label %31

31:                                               ; preds = %99, %0
  %32 = load i32, i32* %11, align 4
  %33 = load i32, i32* %10, align 4
  %34 = icmp sle i32 %32, %33
  br i1 %34, label %35, label %102

35:                                               ; preds = %31
  store i32 1, i32* %13, align 4
  store i32 0, i32* %12, align 4
  br label %36

36:                                               ; preds = %56, %35
  %37 = load i32, i32* %12, align 4
  %38 = load i32, i32* %7, align 4
  %39 = icmp slt i32 %37, %38
  br i1 %39, label %40, label %59

40:                                               ; preds = %36
  %41 = load i32, i32* %11, align 4
  %42 = load i32, i32* %12, align 4
  %43 = add nsw i32 %41, %42
  %44 = sext i32 %43 to i64
  %45 = getelementptr inbounds [1000 x i8], [1000 x i8]* %3, i64 0, i64 %44
  %46 = load i8, i8* %45, align 1
  %47 = sext i8 %46 to i32
  %48 = load i32, i32* %12, align 4
  %49 = sext i32 %48 to i64
  %50 = getelementptr inbounds [100 x i8], [100 x i8]* %2, i64 0, i64 %49
  %51 = load i8, i8* %50, align 1
  %52 = sext i8 %51 to i32
  %53 = icmp ne i32 %47, %52
  br i1 %53, label %54, label %55

54:                                               ; preds = %40
  store i32 0, i32* %13, align 4
  br label %55

55:                                               ; preds = %54, %40
  br label %56

56:                                               ; preds = %55
  %57 = load i32, i32* %12, align 4
  %58 = add nsw i32 %57, 1
  store i32 %58, i32* %12, align 4
  br label %36

59:                                               ; preds = %36
  %60 = load i32, i32* %13, align 4
  %61 = icmp eq i32 %60, 1
  br i1 %61, label %62, label %98

62:                                               ; preds = %59
  %63 = load i32, i32* %11, align 4
  %64 = sub nsw i32 %63, 1
  %65 = sext i32 %64 to i64
  %66 = getelementptr inbounds [1000 x i8], [1000 x i8]* %3, i64 0, i64 %65
  %67 = load i8, i8* %66, align 1
  %68 = sext i8 %67 to i32
  %69 = icmp eq i32 %68, 32
  br i1 %69, label %70, label %98

70:                                               ; preds = %62
  %71 = load i32, i32* %11, align 4
  store i32 %71, i32* %9, align 4
  %72 = getelementptr inbounds [1000 x i8], [1000 x i8]* %5, i64 0, i64 0
  %73 = getelementptr inbounds [1000 x i8], [1000 x i8]* %3, i64 0, i64 0
  %74 = call i8* @strcpy(i8* %72, i8* %73) #5
  %75 = load i32, i32* %9, align 4
  %76 = sext i32 %75 to i64
  %77 = getelementptr inbounds [1000 x i8], [1000 x i8]* %5, i64 0, i64 %76
  store i8 0, i8* %77, align 1
  %78 = getelementptr inbounds [1000 x i8], [1000 x i8]* %5, i64 0, i64 0
  %79 = getelementptr inbounds [100 x i8], [100 x i8]* %4, i64 0, i64 0
  %80 = call i8* @strcat(i8* %78, i8* %79) #5
  %81 = load i32, i32* %9, align 4
  %82 = load i32, i32* %7, align 4
  %83 = add nsw i32 %81, %82
  %84 = sext i32 %83 to i64
  %85 = getelementptr inbounds [1000 x i8], [1000 x i8]* %3, i64 0, i64 %84
  store i8* %85, i8** %6, align 8
  %86 = getelementptr inbounds [1000 x i8], [1000 x i8]* %5, i64 0, i64 0
  %87 = load i8*, i8** %6, align 8
  %88 = call i8* @strcat(i8* %86, i8* %87) #5
  %89 = getelementptr inbounds [1000 x i8], [1000 x i8]* %3, i64 0, i64 0
  %90 = getelementptr inbounds [1000 x i8], [1000 x i8]* %5, i64 0, i64 0
  %91 = call i8* @strcpy(i8* %89, i8* %90) #5
  %92 = getelementptr inbounds [100 x i8], [100 x i8]* %4, i64 0, i64 0
  %93 = call i64 @strlen(i8* %92) #4
  %94 = load i32, i32* %11, align 4
  %95 = sext i32 %94 to i64
  %96 = add i64 %95, %93
  %97 = trunc i64 %96 to i32
  store i32 %97, i32* %11, align 4
  br label %98

98:                                               ; preds = %70, %62, %59
  br label %99

99:                                               ; preds = %98
  %100 = load i32, i32* %11, align 4
  %101 = add nsw i32 %100, 1
  store i32 %101, i32* %11, align 4
  br label %31

102:                                              ; preds = %31
  %103 = getelementptr inbounds [1000 x i8], [1000 x i8]* %3, i64 0, i64 0
  %104 = call i32 (i8*, ...) @printf(i8* getelementptr inbounds ([3 x i8], [3 x i8]* @.str, i64 0, i64 0), i8* %103)
  ret i32 0
}

declare dso_local i32 @gets(...) #1

; Function Attrs: nounwind readonly
declare dso_local i64 @strlen(i8*) #2

; Function Attrs: nounwind
declare dso_local i8* @strcpy(i8*, i8*) #3

; Function Attrs: nounwind
declare dso_local i8* @strcat(i8*, i8*) #3

declare dso_local i32 @printf(i8*, ...) #1


!llvm.module.flags = !{!0}
!llvm.ident = !{!1}

!0 = !{i32 1, !"wchar_size", i32 4}
!1 = !{!"clang version 10.0.0-4ubuntu1 "}
